Certificate:
    Data:
        Version: 3 (0x2)
        Serial Number: 4097 (0x1001)
    Signature Algorithm: sha1WithRSAEncryption
        Issuer: C=ID, ST=Jawa Timur, L=Surabaya, O=Yolo Inc, OU=Informatics Division, CN=www.yolo.com/emailAddress=agrawimba@gmail.com
        Validity
            Not Before: May  6 15:55:04 2015 GMT
            Not After : May  3 15:55:04 2025 GMT
        Subject: CN=demo.client.com, ST=Jawa Barat, C=ID/emailAddress=agrawimba@gmail.com, O=Client Inc, OU=Divisi Keamanan
        Subject Public Key Info:
            Public Key Algorithm: rsaEncryption
                Public-Key: (2048 bit)
                Modulus:
                    00:cb:ec:46:28:48:65:5a:71:ed:76:dd:55:86:dc:
                    92:b5:5d:bf:c9:b7:4a:a2:11:1d:fc:bd:7d:97:dd:
                    75:36:86:07:04:5a:aa:47:59:f9:94:b0:31:75:93:
                    40:f6:2a:dd:38:51:19:87:9f:48:96:32:43:67:cb:
                    16:d6:39:1e:c3:fb:45:33:d3:5c:36:b9:35:08:ab:
                    3b:11:1b:98:63:5f:8a:c4:9c:92:f3:2c:42:21:45:
                    ec:18:de:ab:54:a4:fd:b4:3f:e0:28:7c:9e:fe:70:
                    08:7e:aa:e3:a8:da:01:08:fe:13:21:0c:bb:b4:4d:
                    ac:6d:cd:ef:b6:aa:2b:4c:3b:7d:69:9e:3f:5d:ca:
                    96:5b:74:63:5c:24:1f:b1:09:b8:a1:72:d6:f9:d8:
                    76:a0:8a:16:d5:ef:02:99:8a:ff:89:c5:60:37:65:
                    2a:8d:87:04:4b:d7:08:16:30:b3:d6:f8:c0:f8:75:
                    25:cb:13:62:47:f2:32:8b:46:de:42:92:db:ca:49:
                    9a:74:e5:6e:e2:f8:f9:4d:4c:eb:42:b7:63:d8:f1:
                    85:d9:39:18:3c:ef:b0:ef:71:8c:74:1f:ae:ea:43:
                    d1:29:89:b3:fe:84:79:f8:c2:3c:1d:0d:0d:57:80:
                    b5:83:b0:ec:73:bd:1b:fa:24:48:df:3f:19:8e:36:
                    19:81
                Exponent: 65537 (0x10001)
        X509v3 extensions:
            X509v3 Basic Constraints: 
                CA:FALSE
    Signature Algorithm: sha1WithRSAEncryption
         a4:ee:79:c5:0b:f3:cd:8e:8f:a3:a5:50:ea:c8:db:69:4f:e5:
         2f:fc:2d:e3:90:a4:fb:8e:eb:2d:d3:24:1a:6a:14:df:86:4a:
         6c:1a:37:8e:80:f0:2e:97:cb:f6:96:9d:de:ab:09:14:48:c1:
         26:e5:8e:21:f6:8a:53:a8:a4:c4:90:6a:e5:7b:75:c3:11:da:
         c0:2b:61:df:0d:dc:ad:e5:9a:63:6a:98:fe:77:a2:be:5d:cb:
         40:8c:82:6b:a7:ce:9d:ca:45:e1:01:81:7c:e1:b1:aa:3b:b6:
         db:4b:ac:a6:8a:5d:e3:bd:df:09:6b:e0:02:86:63:45:b3:20:
         cb:b5:6b:d3:ba:13:13:75:9a:a2:e6:c4:89:1c:ca:84:ce:a1:
         bb:6e:e9:fc:8c:03:8f:ff:cb:6f:9c:c3:ee:dc:65:bc:f9:67:
         f8:02:69:11:f5:cd:4a:3e:4b:b1:cd:49:3d:ff:56:02:e2:cd:
         28:85:16:2b:6e:1c:b6:f9:8e:fc:f8:6b:aa:f3:cb:15:cc:76:
         db:8e:cb:9d:08:00:a4:ab:66:28:0a:8f:fb:8a:2d:c1:0d:5d:
         9d:b8:ce:20:06:7a:2b:22:9a:55:7c:a8:77:5e:76:9b:a0:4b:
         3f:2f:53:84:6d:2c:b9:6f:c5:1f:a2:40:e4:ed:d7:d6:71:cd:
         37:a4:27:b2
-----BEGIN CERTIFICATE-----
MIIDvDCCAqSgAwIBAgICEAEwDQYJKoZIhvcNAQEFBQAwgaIxCzAJBgNVBAYTAklE
MRMwEQYDVQQIDApKYXdhIFRpbXVyMREwDwYDVQQHDAhTdXJhYmF5YTERMA8GA1UE
CgwIWW9sbyBJbmMxHTAbBgNVBAsMFEluZm9ybWF0aWNzIERpdmlzaW9uMRUwEwYD
VQQDDAx3d3cueW9sby5jb20xIjAgBgkqhkiG9w0BCQEWE2FncmF3aW1iYUBnbWFp
bC5jb20wHhcNMTUwNTA2MTU1NTA0WhcNMjUwNTAzMTU1NTA0WjCBjzEYMBYGA1UE
AwwPZGVtby5jbGllbnQuY29tMRMwEQYDVQQIDApKYXdhIEJhcmF0MQswCQYDVQQG
EwJJRDEiMCAGCSqGSIb3DQEJARYTYWdyYXdpbWJhQGdtYWlsLmNvbTETMBEGA1UE
CgwKQ2xpZW50IEluYzEYMBYGA1UECwwPRGl2aXNpIEtlYW1hbmFuMIIBIjANBgkq
hkiG9w0BAQEFAAOCAQ8AMIIBCgKCAQEAy+xGKEhlWnHtdt1VhtyStV2/ybdKohEd
/L19l911NoYHBFqqR1n5lLAxdZNA9irdOFEZh59IljJDZ8sW1jkew/tFM9NcNrk1
CKs7ERuYY1+KxJyS8yxCIUXsGN6rVKT9tD/gKHye/nAIfqrjqNoBCP4TIQy7tE2s
bc3vtqorTDt9aZ4/XcqWW3RjXCQfsQm4oXLW+dh2oIoW1e8CmYr/icVgN2UqjYcE
S9cIFjCz1vjA+HUlyxNiR/Iyi0beQpLbykmadOVu4vj5TUzrQrdj2PGF2TkYPO+w
73GMdB+u6kPRKYmz/oR5+MI8HQ0NV4C1g7Dsc70b+iRI3z8ZjjYZgQIDAQABow0w
CzAJBgNVHRMEAjAAMA0GCSqGSIb3DQEBBQUAA4IBAQCk7nnFC/PNjo+jpVDqyNtp
T+Uv/C3jkKT7just0yQaahTfhkpsGjeOgPAul8v2lp3eqwkUSMEm5Y4h9opTqKTE
kGrle3XDEdrAK2HfDdyt5Zpjapj+d6K+XctAjIJrp86dykXhAYF84bGqO7bbS6ym
il3jvd8Ja+AChmNFsyDLtWvTuhMTdZqi5sSJHMqEzqG7bun8jAOP/8tvnMPu3GW8
+Wf4AmkR9c1KPkuxzUk9/1YC4s0ohRYrbhy2+Y78+Guq88sVzHbbjsudCACkq2Yo
Co/7ii3BDV2duM4gBnorIppVfKh3XnaboEs/L1OEbSy5b8UfokDk7dfWcc03pCey
-----END CERTIFICATE-----
