Certificate:
    Data:
        Version: 3 (0x2)
        Serial Number: 4098 (0x1002)
    Signature Algorithm: sha1WithRSAEncryption
        Issuer: C=ID, ST=Jawa Timur, L=Surabaya, O=Yolo Inc, OU=Informatics Division, CN=www.yolo.com/emailAddress=agrawimba@gmail.com
        Validity
            Not Before: May  7 02:55:40 2015 GMT
            Not After : May  4 02:55:40 2025 GMT
        Subject: CN=www.coba.com, ST=Bali, C=ID/emailAddress=root@coba.com, O=Coba Corp, OU=Informatics Division
        Subject Public Key Info:
            Public Key Algorithm: rsaEncryption
                Public-Key: (2048 bit)
                Modulus:
                    00:d7:80:cd:a5:96:46:88:d1:89:9a:91:9c:96:78:
                    38:4a:db:88:fb:d0:46:5d:31:10:bf:c5:c6:72:35:
                    b7:e7:3d:dc:a8:d0:e6:6b:34:12:d2:11:16:55:17:
                    7a:6a:c5:2b:d3:aa:9d:63:fd:3a:18:57:f1:bd:7d:
                    7a:63:01:89:03:3b:7c:9c:7b:a7:8b:b9:31:71:dd:
                    14:90:17:46:da:c2:42:4e:c1:6f:01:fc:e2:0e:46:
                    db:9c:96:3a:9c:ba:68:a0:40:db:21:5b:f2:a1:63:
                    30:ff:6b:20:37:e3:1e:b3:ba:37:f0:91:4d:90:51:
                    9b:61:d7:96:74:a9:33:e2:2a:1b:82:27:3b:03:b3:
                    c0:52:af:eb:9c:7f:52:ab:f9:5f:af:41:df:b9:1d:
                    91:91:c3:7a:18:97:69:89:db:89:71:bf:f4:be:c9:
                    3b:08:c4:bf:07:45:5f:8a:00:14:3e:13:4f:5c:e0:
                    22:38:48:dd:b2:f4:02:49:53:5b:bd:e8:a2:2d:a1:
                    22:f6:ee:a0:fc:63:28:21:87:63:a0:e3:37:df:b9:
                    82:53:25:c5:41:f1:56:bd:3d:8e:8a:23:6b:d5:c9:
                    ca:9c:35:79:04:ef:65:d1:bb:41:f7:a3:3f:fc:a4:
                    a5:02:f1:ae:c3:b3:eb:76:ea:93:0e:25:47:81:4e:
                    2d:8d
                Exponent: 65537 (0x10001)
        X509v3 extensions:
            X509v3 Basic Constraints: 
                CA:FALSE
    Signature Algorithm: sha1WithRSAEncryption
         71:88:a0:b5:05:98:f5:5b:aa:93:3e:0b:15:ed:cd:f0:85:7c:
         11:76:2e:a3:89:fa:ec:f2:36:9b:38:fc:57:81:d5:20:0b:a0:
         f2:0b:4b:50:7f:d9:3e:b7:b8:b6:8d:46:7e:18:d8:da:4b:35:
         e9:42:4a:2b:14:1f:e7:54:9a:95:78:4a:6a:34:10:b1:2b:7e:
         bf:be:4a:81:4a:8b:65:98:57:ef:ac:92:20:a2:d2:a1:c1:4d:
         c0:96:0a:73:04:33:c2:d8:10:06:31:ce:07:8d:b5:7b:d0:1f:
         78:71:41:c0:41:35:2b:a9:f2:93:fe:40:f0:6c:e2:88:ef:b0:
         5c:86:8f:34:6a:fe:6a:37:9d:36:5b:91:b8:8e:b1:32:21:1f:
         4b:61:77:58:61:58:07:f6:d9:88:df:03:9c:b0:e7:9e:6c:ba:
         ab:bd:ec:13:b3:f9:d1:0f:ed:c4:0f:b6:df:38:7e:ec:c9:ec:
         83:eb:6c:16:5c:38:a4:76:48:88:36:4b:ca:b6:85:f1:36:6c:
         9e:ec:35:7e:c4:6f:4b:24:a4:01:a4:ee:db:e6:d9:e8:9b:97:
         db:3c:e3:e4:f0:74:7f:1b:b4:d9:a2:27:f7:96:45:29:d9:6e:
         71:a6:7c:9d:76:b8:c4:80:52:9a:77:dc:92:c2:b4:76:fe:b9:
         7f:5a:f1:00
-----BEGIN CERTIFICATE-----
MIIDsTCCApmgAwIBAgICEAIwDQYJKoZIhvcNAQEFBQAwgaIxCzAJBgNVBAYTAklE
MRMwEQYDVQQIDApKYXdhIFRpbXVyMREwDwYDVQQHDAhTdXJhYmF5YTERMA8GA1UE
CgwIWW9sbyBJbmMxHTAbBgNVBAsMFEluZm9ybWF0aWNzIERpdmlzaW9uMRUwEwYD
VQQDDAx3d3cueW9sby5jb20xIjAgBgkqhkiG9w0BCQEWE2FncmF3aW1iYUBnbWFp
bC5jb20wHhcNMTUwNTA3MDI1NTQwWhcNMjUwNTA0MDI1NTQwWjCBhDEVMBMGA1UE
AwwMd3d3LmNvYmEuY29tMQ0wCwYDVQQIDARCYWxpMQswCQYDVQQGEwJJRDEcMBoG
CSqGSIb3DQEJARYNcm9vdEBjb2JhLmNvbTESMBAGA1UECgwJQ29iYSBDb3JwMR0w
GwYDVQQLDBRJbmZvcm1hdGljcyBEaXZpc2lvbjCCASIwDQYJKoZIhvcNAQEBBQAD
ggEPADCCAQoCggEBANeAzaWWRojRiZqRnJZ4OErbiPvQRl0xEL/FxnI1t+c93KjQ
5ms0EtIRFlUXemrFK9OqnWP9OhhX8b19emMBiQM7fJx7p4u5MXHdFJAXRtrCQk7B
bwH84g5G25yWOpy6aKBA2yFb8qFjMP9rIDfjHrO6N/CRTZBRm2HXlnSpM+IqG4In
OwOzwFKv65x/Uqv5X69B37kdkZHDehiXaYnbiXG/9L7JOwjEvwdFX4oAFD4TT1zg
IjhI3bL0AklTW73ooi2hIvbuoPxjKCGHY6DjN9+5glMlxUHxVr09jooja9XJypw1
eQTvZdG7QfejP/ykpQLxrsOz63bqkw4lR4FOLY0CAwEAAaMNMAswCQYDVR0TBAIw
ADANBgkqhkiG9w0BAQUFAAOCAQEAcYigtQWY9Vuqkz4LFe3N8IV8EXYuo4n67PI2
mzj8V4HVIAug8gtLUH/ZPre4to1GfhjY2ks16UJKKxQf51SalXhKajQQsSt+v75K
gUqLZZhX76ySIKLSocFNwJYKcwQzwtgQBjHOB421e9AfeHFBwEE1K6nyk/5A8Gzi
iO+wXIaPNGr+ajedNluRuI6xMiEfS2F3WGFYB/bZiN8DnLDnnmy6q73sE7P50Q/t
xA+23zh+7Mnsg+tsFlw4pHZIiDZLyraF8TZsnuw1fsRvSySkAaTu2+bZ6JuX2zzj
5PB0fxu02aIn95ZFKdlucaZ8nXa4xIBSmnfcksK0dv65f1rxAA==
-----END CERTIFICATE-----
